; Function Attrs: nounwind uwtable
define dso_local i32 @cbuf_peek(ptr noundef %0, ptr noundef writeonly captures(address_is_null) %1, i32 noundef %2) local_unnamed_addr #0 {
  %4 = icmp eq ptr %1, null
  %5 = icmp slt i32 %2, 0
  %or.cond = or i1 %4, %5
  br i1 %or.cond, label %6, label %8

6:                                                ; preds = %3
  %7 = tail call ptr @__errno_location() #14
  store i32 22, ptr %7, align 4
  br label %45

8:                                                ; preds = %3
  %9 = icmp eq i32 %2, 0
  br i1 %9, label %45, label %10

10:                                               ; preds = %8
  %11 = tail call i32 @pthread_mutex_lock(ptr noundef %0) #15
  %.not = icmp eq i32 %11, 0
  br i1 %.not, label %14, label %12

12:                                               ; preds = %10
  %13 = tail call ptr @__errno_location() #14
  store i32 %11, ptr %13, align 4
  tail call void (ptr, ...) @fatal_abort(ptr noundef nonnull @.str.2, ptr noundef nonnull @__func__.cbuf_peek) #16
  unreachable

14:                                               ; preds = %10
  %15 = getelementptr inbounds nuw i8, ptr %0, i64 56
  %16 = load i32, ptr %15, align 8
  %..i = tail call i32 @llvm.smin.i32(i32 range(i32 1, -2147483648) %2, i32 %16)
  %17 = icmp eq i32 %16, 0
  br i1 %17, label %cbuf_reader.exit, label %18

18:                                               ; preds = %14
  %.old1.i = icmp sgt i32 %16, 0
  br i1 %.old1.i, label %.preheader.i, label %.loopexit.i

.preheader.i:                                     ; preds = %18
  %19 = getelementptr inbounds nuw i8, ptr %0, i64 72
  %20 = load i32, ptr %19, align 8
  %21 = getelementptr inbounds nuw i8, ptr %0, i64 52
  %22 = getelementptr inbounds nuw i8, ptr %0, i64 80
  br label %23

23:                                               ; preds = %38, %.preheader.i
  %.017 = phi ptr [ %1, %.preheader.i ], [ %30, %38 ]
  %.035.i = phi i32 [ %..i, %.preheader.i ], [ %.2.i, %38 ]
  %.0.i = phi i32 [ %20, %.preheader.i ], [ %.1.i, %38 ]
  %24 = load i32, ptr %21, align 4
  %reass.sub = sub i32 %24, %.0.i
  %25 = add i32 %reass.sub, 1
  %.035..i = tail call i32 @llvm.smin.i32(i32 %.035.i, i32 %25)
  %26 = load ptr, ptr %22, align 8
  %27 = sext i32 %.0.i to i64
  %28 = getelementptr inbounds i8, ptr %26, i64 %27
  %29 = sext i32 %.035..i to i64
  tail call void @llvm.memcpy.p0.p0.i64(ptr align 1 %.017, ptr readonly align 1 %28, i64 %29, i1 false)
  %30 = getelementptr inbounds i8, ptr %.017, i64 %29
  %31 = icmp sgt i32 %.035..i, 0
  br i1 %31, label %32, label %38

32:                                               ; preds = %23
  %33 = sub nsw i32 %.035.i, %.035..i
  %34 = add nsw i32 %.035..i, %.0.i
  %35 = load i32, ptr %21, align 4
  %36 = add nsw i32 %35, 1
  %37 = srem i32 %34, %36
  br label %38

38:                                               ; preds = %32, %23
  %.2.i = phi i32 [ %33, %32 ], [ %.035.i, %23 ]
  %.1.i = phi i32 [ %37, %32 ], [ %.0.i, %23 ]
  %39 = icmp sgt i32 %.2.i, 0
  br i1 %39, label %23, label %.loopexit.i, !llvm.loop !12

.loopexit.i:                                      ; preds = %38, %18
  %.136.i = phi i32 [ %..i, %18 ], [ %.2.i, %38 ]
  %.034.i = phi i32 [ 0, %18 ], [ %.035..i, %38 ]
  %40 = sub nsw i32 %..i, %.136.i
  %41 = icmp eq i32 %..i, %.136.i
  %.034..i = select i1 %41, i32 %.034.i, i32 %40
  br label %cbuf_reader.exit

cbuf_reader.exit:                                 ; preds = %14, %.loopexit.i
  %.037.i = phi i32 [ 0, %14 ], [ %.034..i, %.loopexit.i ]
  %42 = tail call i32 @pthread_mutex_unlock(ptr noundef nonnull %0) #15
  %.not15 = icmp eq i32 %42, 0
  br i1 %.not15, label %45, label %43

43:                                               ; preds = %cbuf_reader.exit
  %44 = tail call ptr @__errno_location() #14
  store i32 %42, ptr %44, align 4
  tail call void (ptr, ...) @fatal_abort(ptr noundef nonnull @.str.3, ptr noundef nonnull @__func__.cbuf_peek) #16
  unreachable

45:                                               ; preds = %cbuf_reader.exit, %8, %6
  %.0 = phi i32 [ -1, %6 ], [ 0, %8 ], [ %.037.i, %cbuf_reader.exit ]
  ret i32 %.0
}